(ikeras_frcnn.config
Config
p0
(dp1
S'use_vertical_flips'
p2
I00
sS'verbose'
p3
I01
sS'classifier_regr_std'
p4
(lp5
F8.0
aF8.0
aF4.0
aF4.0
asS'classifier_min_overlap'
p6
F0.1
sS'rot_90'
p7
I00
sS'class_mapping'
p8
(dp9
S'CYSTECHINUS_LOVENI'
p10
I5
sS'ONEIROPHANTA_MUTABILIS_COMPLEX'
p11
I10
sS'bg'
p12
I16
sS'SCOTOPLANES_GLOBOSA'
p13
I7
sS'PENIAGONE_PAPILLATA'
p14
I6
sS'PENIAGONE_SP_1'
p15
I12
sS'ELPIDIA'
p16
I2
sS'ECHINOCREPIS'
p17
I4
sS'LONG_WHITE'
p18
I14
sS'BENTHOCODON'
p19
I1
sS'TJALFIELLA'
p20
I3
sS'PENIAGONE_VITRAE'
p21
I9
sS'PENIAGONE_SP_2'
p22
I15
sS'SYNALLACTIDAE'
p23
I11
sS'PENIAGONE_SP_A'
p24
I0
sS'FISH'
p25
I13
sS'FUNGIACYATHUS_MARENZELLERI'
p26
I8
ssS'use_horizontal_flips'
p27
I01
sS'rpn_max_overlap'
p28
F0.7
sS'network'
p29
S'resnet50'
p30
sS'img_channel_mean'
p31
(lp32
F102.83
aF126.35
aF104.67
asS'balanced_classes'
p33
I00
sS'anchor_box_ratios'
p34
(lp35
(lp36
I1
aI1
aa(lp37
I1
aI2
aa(lp38
I2
aI1
aasS'img_scaling_factor'
p39
F1.0
sS'rpn_stride'
p40
I16
sS'num_rois'
p41
I32
sS'base_net_weights'
p42
S'frcnn_data.hdf5'
p43
sS'anchor_box_scales'
p44
(lp45
I64
aI128
aI256
asS'rpn_min_overlap'
p46
F0.3
sS'model_path'
p47
S'frcnn_data.hdf5'
p48
sS'classifier_max_overlap'
p49
F0.5
sS'std_scaling'
p50
F4.0
sS'im_size'
p51
I540
sb.